target datalayout = "e-m:e-p270:32:32-p271:32:32-p272:64:64-i64:64-i128:128-f80:128-n8:16:32:64-S128"
target triple = "x86_64-pc-linux-gnu"

%struct.Saig_Tsim_t_ = type { ptr, i32, ptr, ptr, i32, i32, i32, ptr, ptr, i32 }
%struct.Vec_Ptr_t_ = type { i32, i32, ptr }
%struct.Vec_Int_t_ = type { i32, i32, ptr }

@.str.6 = private unnamed_addr constant [2 x i8] c"0\00", align 1
@.str.7 = private unnamed_addr constant [2 x i8] c"1\00", align 1
@.str.8 = private unnamed_addr constant [2 x i8] c"x\00", align 1
@.str.17 = private unnamed_addr constant [30 x i8] c"Register %5d has generator: [\00", align 1
@stdout = external global ptr, align 8
@.str.18 = private unnamed_addr constant [3 x i8] c"]\0A\00", align 1
@.str.19 = private unnamed_addr constant [29 x i8] c"Found %3d useful registers.\0A\00", align 1

; Function Attrs: inlinehint nounwind uwtable
define internal void @Vec_IntShrink(ptr noundef %0, i32 noundef %1) #4 {
  %3 = alloca ptr, align 8
  %4 = alloca i32, align 4
  store ptr %0, ptr %3, align 8, !tbaa !42
  store i32 %1, ptr %4, align 4, !tbaa !22
  %5 = load i32, ptr %4, align 4, !tbaa !22
  %6 = load ptr, ptr %3, align 8, !tbaa !42
  %7 = getelementptr inbounds nuw %struct.Vec_Int_t_, ptr %6, i32 0, i32 1
  store i32 %5, ptr %7, align 4, !tbaa !49
  ret void
}

; Function Attrs: inlinehint nounwind uwtable
define internal void @Saig_XsimPrint(ptr noundef %0, i32 noundef %1) #4 {
  %3 = alloca ptr, align 8
  %4 = alloca i32, align 4
  store ptr %0, ptr %3, align 8, !tbaa !89
  store i32 %1, ptr %4, align 4, !tbaa !22
  %5 = load i32, ptr %4, align 4, !tbaa !22
  %6 = icmp eq i32 %5, 1
  br i1 %6, label %7, label %10

7:                                                ; preds = %2
  %8 = load ptr, ptr %3, align 8, !tbaa !89
  %9 = call i32 (ptr, ptr, ...) @fprintf(ptr noundef %8, ptr noundef @.str.6) #9
  br label %19

10:                                               ; preds = %2
  %11 = load i32, ptr %4, align 4, !tbaa !22
  %12 = icmp eq i32 %11, 2
  br i1 %12, label %13, label %16

13:                                               ; preds = %10
  %14 = load ptr, ptr %3, align 8, !tbaa !89
  %15 = call i32 (ptr, ptr, ...) @fprintf(ptr noundef %14, ptr noundef @.str.7) #9
  br label %19

16:                                               ; preds = %10
  %17 = load ptr, ptr %3, align 8, !tbaa !89
  %18 = call i32 (ptr, ptr, ...) @fprintf(ptr noundef %17, ptr noundef @.str.8) #9
  br label %19

19:                                               ; preds = %16, %13, %7
  ret void
}

; Function Attrs: inlinehint nounwind uwtable
define internal void @Vec_IntWriteEntry(ptr noundef %0, i32 noundef %1, i32 noundef %2) #4 {
  %4 = alloca ptr, align 8
  %5 = alloca i32, align 4
  %6 = alloca i32, align 4
  store ptr %0, ptr %4, align 8, !tbaa !42
  store i32 %1, ptr %5, align 4, !tbaa !22
  store i32 %2, ptr %6, align 4, !tbaa !22
  %7 = load i32, ptr %6, align 4, !tbaa !22
  %8 = load ptr, ptr %4, align 8, !tbaa !42
  %9 = getelementptr inbounds nuw %struct.Vec_Int_t_, ptr %8, i32 0, i32 2
  %10 = load ptr, ptr %9, align 8, !tbaa !43
  %11 = load i32, ptr %5, align 4, !tbaa !22
  %12 = sext i32 %11 to i64
  %13 = getelementptr inbounds i32, ptr %10, i64 %12
  store i32 %7, ptr %13, align 4, !tbaa !22
  ret void
}

; Function Attrs: inlinehint nounwind uwtable
define internal i32 @Abc_InfoHasBit(ptr noundef %0, i32 noundef %1) #4 {
  %3 = alloca ptr, align 8
  %4 = alloca i32, align 4
  store ptr %0, ptr %3, align 8, !tbaa !45
  store i32 %1, ptr %4, align 4, !tbaa !22
  %5 = load ptr, ptr %3, align 8, !tbaa !45
  %6 = load i32, ptr %4, align 4, !tbaa !22
  %7 = ashr i32 %6, 5
  %8 = sext i32 %7 to i64
  %9 = getelementptr inbounds i32, ptr %5, i64 %8
  %10 = load i32, ptr %9, align 4, !tbaa !22
  %11 = load i32, ptr %4, align 4, !tbaa !22
  %12 = and i32 %11, 31
  %13 = shl i32 1, %12
  %14 = and i32 %10, %13
  %15 = icmp ugt i32 %14, 0
  %16 = zext i1 %15 to i32
  ret i32 %16
}

; Function Attrs: inlinehint nounwind uwtable
define internal ptr @Vec_PtrEntry(ptr noundef %0, i32 noundef %1) #4 {
  %3 = alloca ptr, align 8
  %4 = alloca i32, align 4
  store ptr %0, ptr %3, align 8, !tbaa !33
  store i32 %1, ptr %4, align 4, !tbaa !22
  %5 = load ptr, ptr %3, align 8, !tbaa !33
  %6 = getelementptr inbounds nuw %struct.Vec_Ptr_t_, ptr %5, i32 0, i32 2
  %7 = load ptr, ptr %6, align 8, !tbaa !37
  %8 = load i32, ptr %4, align 4, !tbaa !22
  %9 = sext i32 %8 to i64
  %10 = getelementptr inbounds ptr, ptr %7, i64 %9
  %11 = load ptr, ptr %10, align 8, !tbaa !51
  ret ptr %11
}

; Function Attrs: inlinehint nounwind uwtable
define internal i32 @Vec_IntEntry(ptr noundef %0, i32 noundef %1) #4 {
  %3 = alloca ptr, align 8
  %4 = alloca i32, align 4
  store ptr %0, ptr %3, align 8, !tbaa !42
  store i32 %1, ptr %4, align 4, !tbaa !22
  %5 = load ptr, ptr %3, align 8, !tbaa !42
  %6 = getelementptr inbounds nuw %struct.Vec_Int_t_, ptr %5, i32 0, i32 2
  %7 = load ptr, ptr %6, align 8, !tbaa !43
  %8 = load i32, ptr %4, align 4, !tbaa !22
  %9 = sext i32 %8 to i64
  %10 = getelementptr inbounds i32, ptr %7, i64 %9
  %11 = load i32, ptr %10, align 4, !tbaa !22
  ret i32 %11
}

; Function Attrs: inlinehint nounwind uwtable
define internal i32 @Vec_IntSize(ptr noundef %0) #4 {
  %2 = alloca ptr, align 8
  store ptr %0, ptr %2, align 8, !tbaa !42
  %3 = load ptr, ptr %2, align 8, !tbaa !42
  %4 = getelementptr inbounds nuw %struct.Vec_Int_t_, ptr %3, i32 0, i32 1
  %5 = load i32, ptr %4, align 4, !tbaa !49
  ret i32 %5
}

; Function Attrs: nounwind uwtable
define i32 @Saig_ManFindRegisters(ptr noundef %0, i32 noundef %1, i32 noundef %2, i32 noundef %3) #0 {
  %5 = alloca ptr, align 8
  %6 = alloca i32, align 4
  %7 = alloca i32, align 4
  %8 = alloca i32, align 4
  %9 = alloca [257 x i32], align 16
  %10 = alloca ptr, align 8
  %11 = alloca i32, align 4
  %12 = alloca i32, align 4
  %13 = alloca i32, align 4
  %14 = alloca i32, align 4
  %15 = alloca i32, align 4
  %16 = alloca i32, align 4
  store ptr %0, ptr %5, align 8, !tbaa !8
  store i32 %1, ptr %6, align 4, !tbaa !22
  store i32 %2, ptr %7, align 4, !tbaa !22
  store i32 %3, ptr %8, align 4, !tbaa !22
  call void @llvm.lifetime.start.p0(i64 1028, ptr %9) #9
  call void @llvm.memset.p0.i64(ptr align 16 %9, i8 0, i64 1028, i1 false)
  call void @llvm.lifetime.start.p0(i64 8, ptr %10) #9
  call void @llvm.lifetime.start.p0(i64 4, ptr %11) #9
  call void @llvm.lifetime.start.p0(i64 4, ptr %12) #9
  call void @llvm.lifetime.start.p0(i64 4, ptr %13) #9
  call void @llvm.lifetime.start.p0(i64 4, ptr %14) #9
  call void @llvm.lifetime.start.p0(i64 4, ptr %15) #9
  call void @llvm.lifetime.start.p0(i64 4, ptr %16) #9
  %17 = load ptr, ptr %5, align 8, !tbaa !8
  %18 = getelementptr inbounds nuw %struct.Saig_Tsim_t_, ptr %17, i32 0, i32 4
  %19 = load i32, ptr %18, align 8, !tbaa !85
  %20 = load ptr, ptr %5, align 8, !tbaa !8
  %21 = getelementptr inbounds nuw %struct.Saig_Tsim_t_, ptr %20, i32 0, i32 5
  %22 = load i32, ptr %21, align 4, !tbaa !86
  %23 = mul nsw i32 2, %22
  %24 = add nsw i32 %19, %23
  store i32 %24, ptr %16, align 4, !tbaa !22
  store i32 0, ptr %11, align 4, !tbaa !22
  store i32 0, ptr %12, align 4, !tbaa !22
  br label %25

25:                                               ; preds = %183, %4
  %26 = load i32, ptr %12, align 4, !tbaa !22
  %27 = load ptr, ptr %5, align 8, !tbaa !8
  %28 = getelementptr inbounds nuw %struct.Saig_Tsim_t_, ptr %27, i32 0, i32 7
  %29 = load ptr, ptr %28, align 8, !tbaa !41
  %30 = call i32 @Vec_IntSize(ptr noundef %29)
  %31 = icmp slt i32 %26, %30
  br i1 %31, label %32, label %38

32:                                               ; preds = %25
  %33 = load ptr, ptr %5, align 8, !tbaa !8
  %34 = getelementptr inbounds nuw %struct.Saig_Tsim_t_, ptr %33, i32 0, i32 7
  %35 = load ptr, ptr %34, align 8, !tbaa !41
  %36 = load i32, ptr %12, align 4, !tbaa !22
  %37 = call i32 @Vec_IntEntry(ptr noundef %35, i32 noundef %36)
  store i32 %37, ptr %14, align 4, !tbaa !22
  br label %38

38:                                               ; preds = %32, %25
  %39 = phi i1 [ false, %25 ], [ true, %32 ]
  br i1 %39, label %40, label %186

40:                                               ; preds = %38
  store i32 0, ptr %13, align 4, !tbaa !22
  br label %41

41:                                               ; preds = %112, %40
  %42 = load i32, ptr %13, align 4, !tbaa !22
  %43 = load i32, ptr %16, align 4, !tbaa !22
  %44 = icmp slt i32 %42, %43
  br i1 %44, label %45, label %115

45:                                               ; preds = %41
  %46 = load i32, ptr %13, align 4, !tbaa !22
  %47 = load ptr, ptr %5, align 8, !tbaa !8
  %48 = getelementptr inbounds nuw %struct.Saig_Tsim_t_, ptr %47, i32 0, i32 4
  %49 = load i32, ptr %48, align 8, !tbaa !85
  %50 = load ptr, ptr %5, align 8, !tbaa !8
  %51 = getelementptr inbounds nuw %struct.Saig_Tsim_t_, ptr %50, i32 0, i32 5
  %52 = load i32, ptr %51, align 4, !tbaa !86
  %53 = add nsw i32 %49, %52
  %54 = icmp slt i32 %46, %53
  br i1 %54, label %55, label %61

55:                                               ; preds = %45
  %56 = load ptr, ptr %5, align 8, !tbaa !8
  %57 = getelementptr inbounds nuw %struct.Saig_Tsim_t_, ptr %56, i32 0, i32 2
  %58 = load ptr, ptr %57, align 8, !tbaa !18
  %59 = load i32, ptr %13, align 4, !tbaa !22
  %60 = call ptr @Vec_PtrEntry(ptr noundef %58, i32 noundef %59)
  store ptr %60, ptr %10, align 8, !tbaa !45
  br label %71

61:                                               ; preds = %45
  %62 = load ptr, ptr %5, align 8, !tbaa !8
  %63 = getelementptr inbounds nuw %struct.Saig_Tsim_t_, ptr %62, i32 0, i32 2
  %64 = load ptr, ptr %63, align 8, !tbaa !18
  %65 = load i32, ptr %13, align 4, !tbaa !22
  %66 = load ptr, ptr %5, align 8, !tbaa !8
  %67 = getelementptr inbounds nuw %struct.Saig_Tsim_t_, ptr %66, i32 0, i32 5
  %68 = load i32, ptr %67, align 4, !tbaa !86
  %69 = sub nsw i32 %65, %68
  %70 = call ptr @Vec_PtrEntry(ptr noundef %64, i32 noundef %69)
  store ptr %70, ptr %10, align 8, !tbaa !45
  br label %71

71:                                               ; preds = %61, %55
  %72 = load ptr, ptr %10, align 8, !tbaa !45
  %73 = load i32, ptr %14, align 4, !tbaa !22
  %74 = mul nsw i32 2, %73
  %75 = add nsw i32 %74, 1
  %76 = call i32 @Abc_InfoHasBit(ptr noundef %72, i32 noundef %75)
  %77 = shl i32 %76, 1
  %78 = load ptr, ptr %10, align 8, !tbaa !45
  %79 = load i32, ptr %14, align 4, !tbaa !22
  %80 = mul nsw i32 2, %79
  %81 = call i32 @Abc_InfoHasBit(ptr noundef %78, i32 noundef %80)
  %82 = or i32 %77, %81
  store i32 %82, ptr %15, align 4, !tbaa !22
  %83 = load i32, ptr %13, align 4, !tbaa !22
  %84 = load i32, ptr %6, align 4, !tbaa !22
  %85 = icmp slt i32 %83, %84
  br i1 %85, label %93, label %86

86:                                               ; preds = %71
  %87 = load i32, ptr %7, align 4, !tbaa !22
  %88 = icmp ne i32 %87, 0
  br i1 %88, label %89, label %100

89:                                               ; preds = %86
  %90 = load i32, ptr %13, align 4, !tbaa !22
  %91 = load i32, ptr %6, align 4, !tbaa !22
  %92 = icmp eq i32 %90, %91
  br i1 %92, label %93, label %100

93:                                               ; preds = %89, %71
  %94 = load i32, ptr %15, align 4, !tbaa !22
  %95 = load i32, ptr %13, align 4, !tbaa !22
  %96 = load i32, ptr %6, align 4, !tbaa !22
  %97 = srem i32 %95, %96
  %98 = sext i32 %97 to i64
  %99 = getelementptr inbounds [257 x i32], ptr %9, i64 0, i64 %98
  store i32 %94, ptr %99, align 4, !tbaa !22
  br label %111

100:                                              ; preds = %89, %86
  %101 = load i32, ptr %13, align 4, !tbaa !22
  %102 = load i32, ptr %6, align 4, !tbaa !22
  %103 = srem i32 %101, %102
  %104 = sext i32 %103 to i64
  %105 = getelementptr inbounds [257 x i32], ptr %9, i64 0, i64 %104
  %106 = load i32, ptr %105, align 4, !tbaa !22
  %107 = load i32, ptr %15, align 4, !tbaa !22
  %108 = icmp ne i32 %106, %107
  br i1 %108, label %109, label %110

109:                                              ; preds = %100
  br label %115

110:                                              ; preds = %100
  br label %111

111:                                              ; preds = %110, %93
  br label %112

112:                                              ; preds = %111
  %113 = load i32, ptr %13, align 4, !tbaa !22
  %114 = add nsw i32 %113, 1
  store i32 %114, ptr %13, align 4, !tbaa !22
  br label %41, !llvm.loop !87

115:                                              ; preds = %109, %41
  %116 = load i32, ptr %13, align 4, !tbaa !22
  %117 = load i32, ptr %16, align 4, !tbaa !22
  %118 = icmp slt i32 %116, %117
  br i1 %118, label %119, label %120

119:                                              ; preds = %115
  br label %183

120:                                              ; preds = %115
  %121 = load i32, ptr %7, align 4, !tbaa !22
  %122 = icmp ne i32 %121, 0
  br i1 %122, label %123, label %147

123:                                              ; preds = %120
  store i32 1, ptr %13, align 4, !tbaa !22
  br label %124

124:                                              ; preds = %138, %123
  %125 = load i32, ptr %13, align 4, !tbaa !22
  %126 = load i32, ptr %6, align 4, !tbaa !22
  %127 = icmp slt i32 %125, %126
  br i1 %127, label %128, label %141

128:                                              ; preds = %124
  %129 = load i32, ptr %13, align 4, !tbaa !22
  %130 = sext i32 %129 to i64
  %131 = getelementptr inbounds [257 x i32], ptr %9, i64 0, i64 %130
  %132 = load i32, ptr %131, align 4, !tbaa !22
  %133 = getelementptr inbounds [257 x i32], ptr %9, i64 0, i64 0
  %134 = load i32, ptr %133, align 16, !tbaa !22
  %135 = icmp ne i32 %132, %134
  br i1 %135, label %136, label %137

136:                                              ; preds = %128
  br label %141

137:                                              ; preds = %128
  br label %138

138:                                              ; preds = %137
  %139 = load i32, ptr %13, align 4, !tbaa !22
  %140 = add nsw i32 %139, 1
  store i32 %140, ptr %13, align 4, !tbaa !22
  br label %124, !llvm.loop !88

141:                                              ; preds = %136, %124
  %142 = load i32, ptr %13, align 4, !tbaa !22
  %143 = load i32, ptr %6, align 4, !tbaa !22
  %144 = icmp eq i32 %142, %143
  br i1 %144, label %145, label %146

145:                                              ; preds = %141
  br label %183

146:                                              ; preds = %141
  br label %147

147:                                              ; preds = %146, %120
  %148 = load ptr, ptr %5, align 8, !tbaa !8
  %149 = getelementptr inbounds nuw %struct.Saig_Tsim_t_, ptr %148, i32 0, i32 7
  %150 = load ptr, ptr %149, align 8, !tbaa !41
  %151 = load i32, ptr %11, align 4, !tbaa !22
  %152 = add nsw i32 %151, 1
  store i32 %152, ptr %11, align 4, !tbaa !22
  %153 = load i32, ptr %14, align 4, !tbaa !22
  call void @Vec_IntWriteEntry(ptr noundef %150, i32 noundef %151, i32 noundef %153)
  %154 = load i32, ptr %8, align 4, !tbaa !22
  %155 = icmp ne i32 %154, 0
  br i1 %155, label %156, label %182

156:                                              ; preds = %147
  %157 = load i32, ptr %14, align 4, !tbaa !22
  %158 = call i32 (ptr, ...) @printf(ptr noundef @.str.17, i32 noundef %157)
  store i32 0, ptr %13, align 4, !tbaa !22
  br label %159

159:                                              ; preds = %169, %156
  %160 = load i32, ptr %13, align 4, !tbaa !22
  %161 = load i32, ptr %6, align 4, !tbaa !22
  %162 = icmp slt i32 %160, %161
  br i1 %162, label %163, label %172

163:                                              ; preds = %159
  %164 = load ptr, ptr @stdout, align 8, !tbaa !89
  %165 = load i32, ptr %13, align 4, !tbaa !22
  %166 = sext i32 %165 to i64
  %167 = getelementptr inbounds [257 x i32], ptr %9, i64 0, i64 %166
  %168 = load i32, ptr %167, align 4, !tbaa !22
  call void @Saig_XsimPrint(ptr noundef %164, i32 noundef %168)
  br label %169

169:                                              ; preds = %163
  %170 = load i32, ptr %13, align 4, !tbaa !22
  %171 = add nsw i32 %170, 1
  store i32 %171, ptr %13, align 4, !tbaa !22
  br label %159, !llvm.loop !91

172:                                              ; preds = %159
  %173 = call i32 (ptr, ...) @printf(ptr noundef @.str.18)
  %174 = load i32, ptr %8, align 4, !tbaa !22
  %175 = icmp ne i32 %174, 0
  br i1 %175, label %176, label %181

176:                                              ; preds = %172
  %177 = load ptr, ptr %5, align 8, !tbaa !8
  %178 = getelementptr inbounds nuw %struct.Saig_Tsim_t_, ptr %177, i32 0, i32 0
  %179 = load ptr, ptr %178, align 8, !tbaa !10
  %180 = load i32, ptr %14, align 4, !tbaa !22
  call void @Saig_ManAnalizeControl(ptr noundef %179, i32 noundef %180)
  br label %181

181:                                              ; preds = %176, %172
  br label %182

182:                                              ; preds = %181, %147
  br label %183

183:                                              ; preds = %182, %145, %119
  %184 = load i32, ptr %12, align 4, !tbaa !22
  %185 = add nsw i32 %184, 1
  store i32 %185, ptr %12, align 4, !tbaa !22
  br label %25, !llvm.loop !92

186:                                              ; preds = %38
  %187 = load ptr, ptr %5, align 8, !tbaa !8
  %188 = getelementptr inbounds nuw %struct.Saig_Tsim_t_, ptr %187, i32 0, i32 7
  %189 = load ptr, ptr %188, align 8, !tbaa !41
  %190 = load i32, ptr %11, align 4, !tbaa !22
  call void @Vec_IntShrink(ptr noundef %189, i32 noundef %190)
  %191 = load i32, ptr %8, align 4, !tbaa !22
  %192 = icmp ne i32 %191, 0
  br i1 %192, label %193, label %199

193:                                              ; preds = %186
  %194 = load ptr, ptr %5, align 8, !tbaa !8
  %195 = getelementptr inbounds nuw %struct.Saig_Tsim_t_, ptr %194, i32 0, i32 7
  %196 = load ptr, ptr %195, align 8, !tbaa !41
  %197 = call i32 @Vec_IntSize(ptr noundef %196)
  %198 = call i32 (ptr, ...) @printf(ptr noundef @.str.19, i32 noundef %197)
  br label %199

199:                                              ; preds = %193, %186
  %200 = load ptr, ptr %5, align 8, !tbaa !8
  %201 = getelementptr inbounds nuw %struct.Saig_Tsim_t_, ptr %200, i32 0, i32 7
  %202 = load ptr, ptr %201, align 8, !tbaa !41
  %203 = call i32 @Vec_IntSize(ptr noundef %202)
  call void @llvm.lifetime.end.p0(i64 4, ptr %16) #9
  call void @llvm.lifetime.end.p0(i64 4, ptr %15) #9
  call void @llvm.lifetime.end.p0(i64 4, ptr %14) #9
  call void @llvm.lifetime.end.p0(i64 4, ptr %13) #9
  call void @llvm.lifetime.end.p0(i64 4, ptr %12) #9
  call void @llvm.lifetime.end.p0(i64 4, ptr %11) #9
  call void @llvm.lifetime.end.p0(i64 8, ptr %10) #9
  call void @llvm.lifetime.end.p0(i64 1028, ptr %9) #9
  ret i32 %203
}