; Function Attrs: nounwind uwtable
define i32 @Saig_ManFindRegisters(ptr noundef readonly captures(none) %0, i32 noundef %1, i32 noundef %2, i32 noundef %3) local_unnamed_addr #0 {
  %5 = alloca [257 x i32], align 16
  call void @llvm.lifetime.start.p0(i64 1028, ptr nonnull %5) #21
  call void @llvm.memset.p0.i64(ptr noundef nonnull align 16 dereferenceable(1028) %5, i8 0, i64 1028, i1 false)
  %6 = getelementptr inbounds nuw i8, ptr %0, i64 32
  %7 = getelementptr inbounds nuw i8, ptr %0, i64 36
  %8 = getelementptr inbounds nuw i8, ptr %0, i64 48
  %9 = load ptr, ptr %8, align 8, !tbaa !36
  %10 = getelementptr i8, ptr %9, i64 4
  %.val7387 = load i32, ptr %10, align 4, !tbaa !41
  %11 = icmp sgt i32 %.val7387, 0
  br i1 %11, label %.lr.ph91, label %.critedge

.lr.ph91:                                         ; preds = %4
  %12 = load i32, ptr %7, align 4, !tbaa !79
  %13 = shl i32 %12, 1
  %14 = load i32, ptr %6, align 8, !tbaa !80
  %15 = add i32 %13, %14
  %16 = icmp sgt i32 %15, 0
  %17 = getelementptr inbounds nuw i8, ptr %0, i64 16
  %.not63 = icmp ne i32 %2, 0
  %.not65 = icmp eq i32 %2, 0
  %18 = icmp sgt i32 %1, 1
  %.not67 = icmp eq i32 %3, 0
  %19 = icmp sgt i32 %1, 0
  %20 = sext i32 %1 to i64
  %21 = zext i32 %1 to i64
  %wide.trip.count = zext nneg i32 %15 to i64
  br label %22

22:                                               ; preds = %.lr.ph91, %.loopexit
  %23 = phi ptr [ %9, %.lr.ph91 ], [ %78, %.loopexit ]
  %indvars.iv106 = phi i64 [ 0, %.lr.ph91 ], [ %indvars.iv.next107, %.loopexit ]
  %.05889 = phi i32 [ 0, %.lr.ph91 ], [ %.1, %.loopexit ]
  %24 = getelementptr i8, ptr %23, i64 8
  %.val74 = load ptr, ptr %24, align 8, !tbaa !37
  %25 = getelementptr inbounds nuw i32, ptr %.val74, i64 %indvars.iv106
  %26 = load i32, ptr %25, align 4, !tbaa !39
  br i1 %16, label %.lr.ph, label %.critedge69

.lr.ph:                                           ; preds = %22
  %27 = load i32, ptr %6, align 8, !tbaa !80
  %28 = load i32, ptr %7, align 4, !tbaa !79
  %29 = add nsw i32 %28, %27
  %30 = shl nsw i32 %26, 1
  %31 = ashr i32 %26, 4
  %32 = sext i32 %31 to i64
  %33 = and i32 %30, 30
  %34 = or disjoint i32 %33, 1
  %35 = sext i32 %28 to i64
  %36 = sext i32 %29 to i64
  %37 = load ptr, ptr %17, align 8, !tbaa !29
  %38 = getelementptr i8, ptr %37, i64 8
  %.val = load ptr, ptr %38, align 8, !tbaa !28
  br label %39

39:                                               ; preds = %.lr.ph, %60
  %indvars.iv = phi i64 [ 0, %.lr.ph ], [ %indvars.iv.next, %60 ]
  %40 = icmp slt i64 %indvars.iv, %36
  %41 = select i1 %40, i64 0, i64 %35
  %.sink = sub nsw i64 %indvars.iv, %41
  %42 = getelementptr inbounds ptr, ptr %.val, i64 %.sink
  %.0 = load ptr, ptr %42, align 8, !tbaa !43
  %43 = getelementptr inbounds i32, ptr %.0, i64 %32
  %44 = load i32, ptr %43, align 4, !tbaa !39
  %45 = lshr i32 %44, %34
  %46 = shl nuw i32 %45, 1
  %47 = and i32 %46, 2
  %48 = lshr i32 %44, %33
  %49 = and i32 %48, 1
  %50 = or disjoint i32 %47, %49
  %51 = icmp slt i64 %indvars.iv, %20
  %52 = icmp eq i64 %indvars.iv, %21
  %or.cond = and i1 %.not63, %52
  %or.cond94 = or i1 %51, %or.cond
  %53 = trunc nuw nsw i64 %indvars.iv to i32
  %54 = srem i32 %53, %1
  %55 = zext nneg i32 %54 to i64
  %56 = getelementptr inbounds nuw [257 x i32], ptr %5, i64 0, i64 %55
  br i1 %or.cond94, label %57, label %58

57:                                               ; preds = %39
  store i32 %50, ptr %56, align 4, !tbaa !39
  br label %60

58:                                               ; preds = %39
  %59 = load i32, ptr %56, align 4, !tbaa !39
  %.not64 = icmp eq i32 %59, %50
  br i1 %.not64, label %60, label %.loopexit

60:                                               ; preds = %57, %58
  %indvars.iv.next = add nuw nsw i64 %indvars.iv, 1
  %exitcond.not = icmp eq i64 %indvars.iv.next, %wide.trip.count
  br i1 %exitcond.not, label %.critedge69, label %39, !llvm.loop !81

.critedge69:                                      ; preds = %60, %22
  br i1 %.not65, label %68, label %.preheader

.preheader:                                       ; preds = %.critedge69
  br i1 %18, label %.lr.ph79, label %._crit_edge

.lr.ph79:                                         ; preds = %.preheader
  %61 = load i32, ptr %5, align 16, !tbaa !39
  br label %62

62:                                               ; preds = %.lr.ph79, %65
  %indvars.iv96 = phi i64 [ 1, %.lr.ph79 ], [ %indvars.iv.next97, %65 ]
  %63 = getelementptr inbounds nuw [257 x i32], ptr %5, i64 0, i64 %indvars.iv96
  %64 = load i32, ptr %63, align 4, !tbaa !39
  %.not66 = icmp eq i32 %64, %61
  br i1 %.not66, label %65, label %._crit_edge.loopexit

65:                                               ; preds = %62
  %indvars.iv.next97 = add nuw nsw i64 %indvars.iv96, 1
  %exitcond100.not = icmp eq i64 %indvars.iv.next97, %21
  br i1 %exitcond100.not, label %.loopexit, label %62, !llvm.loop !82

._crit_edge.loopexit:                             ; preds = %62
  %66 = trunc nuw nsw i64 %indvars.iv96 to i32
  br label %._crit_edge

._crit_edge:                                      ; preds = %._crit_edge.loopexit, %.preheader
  %.161.lcssa = phi i32 [ 1, %.preheader ], [ %66, %._crit_edge.loopexit ]
  %67 = icmp eq i32 %.161.lcssa, %1
  br i1 %67, label %.loopexit, label %68

68:                                               ; preds = %._crit_edge, %.critedge69
  %69 = add nsw i32 %.05889, 1
  %70 = sext i32 %.05889 to i64
  %71 = getelementptr inbounds i32, ptr %.val74, i64 %70
  store i32 %26, ptr %71, align 4, !tbaa !39
  br i1 %.not67, label %.loopexit, label %72

72:                                               ; preds = %68
  %73 = tail call i32 (ptr, ...) @printf(ptr noundef nonnull dereferenceable(1) @.str.17, i32 noundef %26)
  br i1 %19, label %.lr.ph84, label %._crit_edge85

.lr.ph84:                                         ; preds = %72, %.lr.ph84
  %indvars.iv101 = phi i64 [ %indvars.iv.next102, %.lr.ph84 ], [ 0, %72 ]
  %74 = load ptr, ptr @stdout, align 8, !tbaa !83
  %75 = getelementptr inbounds nuw [257 x i32], ptr %5, i64 0, i64 %indvars.iv101
  %76 = load i32, ptr %75, align 4, !tbaa !39
  %switch.selectcmp.i = icmp eq i32 %76, 2
  %switch.select.i = select i1 %switch.selectcmp.i, i32 49, i32 120
  %switch.selectcmp6.i = icmp eq i32 %76, 1
  %switch.select7.i = select i1 %switch.selectcmp6.i, i32 48, i32 %switch.select.i
  %fputc.i = tail call i32 @fputc(i32 %switch.select7.i, ptr %74)
  %indvars.iv.next102 = add nuw nsw i64 %indvars.iv101, 1
  %exitcond105.not = icmp eq i64 %indvars.iv.next102, %21
  br i1 %exitcond105.not, label %._crit_edge85, label %.lr.ph84, !llvm.loop !85

._crit_edge85:                                    ; preds = %.lr.ph84, %72
  %puts = tail call i32 @puts(ptr nonnull dereferenceable(1) @str.6)
  %77 = load ptr, ptr %0, align 8, !tbaa !3
  tail call void @Saig_ManAnalizeControl(ptr noundef %77, i32 noundef %26)
  %.pre = load ptr, ptr %8, align 8, !tbaa !36
  br label %.loopexit

.loopexit:                                        ; preds = %58, %65, %68, %._crit_edge85, %._crit_edge
  %78 = phi ptr [ %23, %._crit_edge ], [ %.pre, %._crit_edge85 ], [ %23, %68 ], [ %23, %65 ], [ %23, %58 ]
  %.1 = phi i32 [ %.05889, %._crit_edge ], [ %69, %._crit_edge85 ], [ %69, %68 ], [ %.05889, %65 ], [ %.05889, %58 ]
  %indvars.iv.next107 = add nuw nsw i64 %indvars.iv106, 1
  %79 = getelementptr i8, ptr %78, i64 4
  %.val73 = load i32, ptr %79, align 4, !tbaa !41
  %80 = sext i32 %.val73 to i64
  %81 = icmp slt i64 %indvars.iv.next107, %80
  br i1 %81, label %22, label %.critedge, !llvm.loop !86

.critedge:                                        ; preds = %.loopexit, %4
  %.lcssa86 = phi ptr [ %9, %4 ], [ %78, %.loopexit ]
  %.058.lcssa = phi i32 [ 0, %4 ], [ %.1, %.loopexit ]
  %82 = getelementptr i8, ptr %.lcssa86, i64 4
  store i32 %.058.lcssa, ptr %82, align 4, !tbaa !41
  %.not = icmp eq i32 %3, 0
  br i1 %.not, label %85, label %83

83:                                               ; preds = %.critedge
  %84 = tail call i32 (ptr, ...) @printf(ptr noundef nonnull dereferenceable(1) @.str.19, i32 noundef %.058.lcssa)
  %.pre109 = load ptr, ptr %8, align 8, !tbaa !36
  %.phi.trans.insert = getelementptr i8, ptr %.pre109, i64 4
  %.val71.pre = load i32, ptr %.phi.trans.insert, align 4, !tbaa !41
  br label %85

85:                                               ; preds = %83, %.critedge
  %.val71 = phi i32 [ %.val71.pre, %83 ], [ %.058.lcssa, %.critedge ]
  call void @llvm.lifetime.end.p0(i64 1028, ptr nonnull %5) #21
  ret i32 %.val71
}